; Function Attrs: nofree norecurse nosync nounwind memory(argmem: readwrite) uwtable
define internal void @lfe_fir1_float_c(ptr noundef writeonly captures(none) %0, ptr noundef readonly captures(none) %1, ptr noundef readonly captures(none) %2, i64 noundef %3) #3 {
  %5 = lshr i64 %3, 2
  %6 = trunc i64 %5 to i32
  %7 = icmp sgt i32 %6, 0
  br i1 %7, label %.preheader44.i, label %lfe_fir_float_c.exit

.preheader44.i:                                   ; preds = %4, %27
  %.03951.i = phi i32 [ %30, %27 ], [ 0, %4 ]
  %.04050.i = phi ptr [ %29, %27 ], [ %0, %4 ]
  %.04149.i = phi ptr [ %28, %27 ], [ %1, %4 ]
  %invariant.gep.i = getelementptr inbounds nuw i8, ptr %.04050.i, i64 256
  br label %.preheader.i

.preheader.i:                                     ; preds = %25, %.preheader44.i
  %indvars.iv54.i = phi i64 [ 0, %.preheader44.i ], [ %indvars.iv.next55.i, %25 ]
  %8 = trunc nuw nsw i64 %indvars.iv54.i to i32
  %9 = shl i32 %8, 2
  %10 = sext i32 %9 to i64
  br label %11

11:                                               ; preds = %11, %.preheader.i
  %indvars.iv.i = phi i64 [ 0, %.preheader.i ], [ %indvars.iv.next.i, %11 ]
  %.047.i = phi float [ 0.000000e+00, %.preheader.i ], [ %24, %11 ]
  %.03646.i = phi float [ 0.000000e+00, %.preheader.i ], [ %19, %11 ]
  %12 = add nuw nsw i64 %indvars.iv.i, %10
  %13 = getelementptr inbounds float, ptr %2, i64 %12
  %14 = load float, ptr %13, align 4, !tbaa !33
  %15 = sub nsw i64 0, %indvars.iv.i
  %16 = getelementptr inbounds i32, ptr %.04149.i, i64 %15
  %17 = load i32, ptr %16, align 4, !tbaa !23
  %18 = sitofp i32 %17 to float
  %19 = tail call nsz float @llvm.fmuladd.f32(float %14, float %18, float %.03646.i)
  %20 = shl i64 %12, 32
  %sext.i = sub nuw nsw i64 1095216660480, %20
  %21 = lshr exact i64 %sext.i, 30
  %22 = getelementptr inbounds nuw i8, ptr %2, i64 %21
  %23 = load float, ptr %22, align 4, !tbaa !33
  %24 = tail call nsz float @llvm.fmuladd.f32(float %23, float %18, float %.047.i)
  %indvars.iv.next.i = add nuw nsw i64 %indvars.iv.i, 1
  %exitcond.not.i = icmp eq i64 %indvars.iv.next.i, 4
  br i1 %exitcond.not.i, label %25, label %11, !llvm.loop !35

25:                                               ; preds = %11
  %26 = getelementptr inbounds nuw float, ptr %.04050.i, i64 %indvars.iv54.i
  store float %19, ptr %26, align 4, !tbaa !33
  %gep.i = getelementptr inbounds nuw float, ptr %invariant.gep.i, i64 %indvars.iv54.i
  store float %24, ptr %gep.i, align 4, !tbaa !33
  %indvars.iv.next55.i = add nuw nsw i64 %indvars.iv54.i, 1
  %exitcond59.not.i = icmp eq i64 %indvars.iv.next55.i, 64
  br i1 %exitcond59.not.i, label %27, label %.preheader.i, !llvm.loop !36

27:                                               ; preds = %25
  %28 = getelementptr inbounds nuw i8, ptr %.04149.i, i64 4
  %29 = getelementptr inbounds nuw i8, ptr %.04050.i, i64 512
  %30 = add nuw nsw i32 %.03951.i, 1
  %exitcond60.not.i = icmp eq i32 %30, %6
  br i1 %exitcond60.not.i, label %lfe_fir_float_c.exit, label %.preheader44.i, !llvm.loop !37

lfe_fir_float_c.exit:                             ; preds = %27, %4
  ret void
}